target datalayout = "e-m:e-p270:32:32-p271:32:32-p272:64:64-i64:64-i128:128-f80:128-n8:16:32:64-S128"
target triple = "x86_64-pc-linux-gnu"

%struct.mbedtls_mpi = type { ptr, i16, i16 }

; Function Attrs: nounwind uwtable
define internal i32 @ecp_mod_p521(ptr noundef %0) #0 {
  %2 = alloca i32, align 4
  %3 = alloca ptr, align 8
  %4 = alloca i32, align 4
  %5 = alloca i64, align 8
  %6 = alloca %struct.mbedtls_mpi, align 8
  %7 = alloca [10 x i64], align 16
  %8 = alloca i32, align 4
  store ptr %0, ptr %3, align 8, !tbaa !19
  call void @llvm.lifetime.start.p0(i64 4, ptr %4) #6
  store i32 -110, ptr %4, align 4, !tbaa !8
  call void @llvm.lifetime.start.p0(i64 8, ptr %5) #6
  call void @llvm.lifetime.start.p0(i64 16, ptr %6) #6
  call void @llvm.lifetime.start.p0(i64 80, ptr %7) #6
  %9 = load ptr, ptr %3, align 8, !tbaa !19
  %10 = getelementptr inbounds nuw %struct.mbedtls_mpi, ptr %9, i32 0, i32 2
  %11 = load i16, ptr %10, align 2, !tbaa !24
  %12 = zext i16 %11 to i64
  %13 = icmp ult i64 %12, 9
  br i1 %13, label %14, label %15

14:                                               ; preds = %1
  store i32 0, ptr %2, align 4
  store i32 1, ptr %8, align 4
  br label %84

15:                                               ; preds = %1
  %16 = getelementptr inbounds nuw %struct.mbedtls_mpi, ptr %6, i32 0, i32 1
  store i16 1, ptr %16, align 8, !tbaa !37
  %17 = load ptr, ptr %3, align 8, !tbaa !19
  %18 = getelementptr inbounds nuw %struct.mbedtls_mpi, ptr %17, i32 0, i32 2
  %19 = load i16, ptr %18, align 2, !tbaa !24
  %20 = zext i16 %19 to i64
  %21 = sub i64 %20, 8
  %22 = trunc i64 %21 to i16
  %23 = getelementptr inbounds nuw %struct.mbedtls_mpi, ptr %6, i32 0, i32 2
  store i16 %22, ptr %23, align 2, !tbaa !24
  %24 = getelementptr inbounds nuw %struct.mbedtls_mpi, ptr %6, i32 0, i32 2
  %25 = load i16, ptr %24, align 2, !tbaa !24
  %26 = zext i16 %25 to i64
  %27 = icmp ugt i64 %26, 10
  br i1 %27, label %28, label %30

28:                                               ; preds = %15
  %29 = getelementptr inbounds nuw %struct.mbedtls_mpi, ptr %6, i32 0, i32 2
  store i16 10, ptr %29, align 2, !tbaa !24
  br label %30

30:                                               ; preds = %28, %15
  %31 = getelementptr inbounds [10 x i64], ptr %7, i64 0, i64 0
  %32 = getelementptr inbounds nuw %struct.mbedtls_mpi, ptr %6, i32 0, i32 0
  store ptr %31, ptr %32, align 8, !tbaa !22
  %33 = getelementptr inbounds [10 x i64], ptr %7, i64 0, i64 0
  %34 = load ptr, ptr %3, align 8, !tbaa !19
  %35 = getelementptr inbounds nuw %struct.mbedtls_mpi, ptr %34, i32 0, i32 0
  %36 = load ptr, ptr %35, align 8, !tbaa !22
  %37 = getelementptr inbounds nuw i64, ptr %36, i64 9
  %38 = getelementptr inbounds i64, ptr %37, i64 -1
  %39 = getelementptr inbounds nuw %struct.mbedtls_mpi, ptr %6, i32 0, i32 2
  %40 = load i16, ptr %39, align 2, !tbaa !24
  %41 = zext i16 %40 to i64
  %42 = mul i64 %41, 8
  call void @llvm.memcpy.p0.p0.i64(ptr align 16 %33, ptr align 8 %38, i64 %42, i1 false)
  br label %43

43:                                               ; preds = %30
  %44 = call i32 @mbedtls_mpi_shift_r(ptr noundef %6, i64 noundef 9)
  store i32 %44, ptr %4, align 4, !tbaa !8
  %45 = icmp ne i32 %44, 0
  br i1 %45, label %46, label %47

46:                                               ; preds = %43
  br label %82

47:                                               ; preds = %43
  br label %48

48:                                               ; preds = %47
  br label %49

49:                                               ; preds = %48
  %50 = load ptr, ptr %3, align 8, !tbaa !19
  %51 = getelementptr inbounds nuw %struct.mbedtls_mpi, ptr %50, i32 0, i32 0
  %52 = load ptr, ptr %51, align 8, !tbaa !22
  %53 = getelementptr inbounds nuw i64, ptr %52, i64 8
  %54 = load i64, ptr %53, align 8, !tbaa !21
  %55 = and i64 %54, 511
  store i64 %55, ptr %53, align 8, !tbaa !21
  store i64 9, ptr %5, align 8, !tbaa !21
  br label %56

56:                                               ; preds = %69, %49
  %57 = load i64, ptr %5, align 8, !tbaa !21
  %58 = load ptr, ptr %3, align 8, !tbaa !19
  %59 = getelementptr inbounds nuw %struct.mbedtls_mpi, ptr %58, i32 0, i32 2
  %60 = load i16, ptr %59, align 2, !tbaa !24
  %61 = zext i16 %60 to i64
  %62 = icmp ult i64 %57, %61
  br i1 %62, label %63, label %72

63:                                               ; preds = %56
  %64 = load ptr, ptr %3, align 8, !tbaa !19
  %65 = getelementptr inbounds nuw %struct.mbedtls_mpi, ptr %64, i32 0, i32 0
  %66 = load ptr, ptr %65, align 8, !tbaa !22
  %67 = load i64, ptr %5, align 8, !tbaa !21
  %68 = getelementptr inbounds nuw i64, ptr %66, i64 %67
  store i64 0, ptr %68, align 8, !tbaa !21
  br label %69

69:                                               ; preds = %63
  %70 = load i64, ptr %5, align 8, !tbaa !21
  %71 = add i64 %70, 1
  store i64 %71, ptr %5, align 8, !tbaa !21
  br label %56, !llvm.loop !38

72:                                               ; preds = %56
  br label %73

73:                                               ; preds = %72
  %74 = load ptr, ptr %3, align 8, !tbaa !19
  %75 = load ptr, ptr %3, align 8, !tbaa !19
  %76 = call i32 @mbedtls_mpi_add_abs(ptr noundef %74, ptr noundef %75, ptr noundef %6)
  store i32 %76, ptr %4, align 4, !tbaa !8
  %77 = icmp ne i32 %76, 0
  br i1 %77, label %78, label %79

78:                                               ; preds = %73
  br label %82

79:                                               ; preds = %73
  br label %80

80:                                               ; preds = %79
  br label %81

81:                                               ; preds = %80
  br label %82

82:                                               ; preds = %81, %78, %46
  %83 = load i32, ptr %4, align 4, !tbaa !8
  store i32 %83, ptr %2, align 4
  store i32 1, ptr %8, align 4
  br label %84

84:                                               ; preds = %82, %14
  call void @llvm.lifetime.end.p0(i64 80, ptr %7) #6
  call void @llvm.lifetime.end.p0(i64 16, ptr %6) #6
  call void @llvm.lifetime.end.p0(i64 8, ptr %5) #6
  call void @llvm.lifetime.end.p0(i64 4, ptr %4) #6
  %85 = load i32, ptr %2, align 4
  ret i32 %85
}