; Function Attrs: nounwind uwtable
define internal i32 @ecp_mod_p521(ptr noundef %0) #0 {
  %2 = alloca %struct.mbedtls_mpi, align 8
  %3 = alloca [10 x i64], align 16
  call void @llvm.lifetime.start.p0(i64 16, ptr nonnull %2) #7
  call void @llvm.lifetime.start.p0(i64 80, ptr nonnull %3) #7
  %4 = getelementptr inbounds nuw i8, ptr %0, i64 10
  %5 = load i16, ptr %4, align 2, !tbaa !17
  %6 = icmp ult i16 %5, 9
  br i1 %6, label %27, label %7

7:                                                ; preds = %1
  %8 = getelementptr inbounds nuw i8, ptr %2, i64 8
  store i16 1, ptr %8, align 8, !tbaa !16
  %9 = add i16 %5, -8
  %10 = getelementptr inbounds nuw i8, ptr %2, i64 10
  %spec.select = tail call i16 @llvm.umin.i16(i16 %9, i16 10)
  store i16 %spec.select, ptr %10, align 2, !tbaa !17
  store ptr %3, ptr %2, align 8, !tbaa !18
  %11 = load ptr, ptr %0, align 8, !tbaa !18
  %12 = getelementptr inbounds nuw i8, ptr %11, i64 64
  %13 = shl nuw nsw i16 %spec.select, 3
  %14 = zext nneg i16 %13 to i64
  call void @llvm.memcpy.p0.p0.i64(ptr nonnull align 16 %3, ptr nonnull align 8 %12, i64 %14, i1 false)
  %15 = call i32 @mbedtls_mpi_shift_r(ptr noundef nonnull %2, i64 noundef 9) #7
  %.not = icmp eq i32 %15, 0
  br i1 %.not, label %16, label %27

16:                                               ; preds = %7
  %17 = load ptr, ptr %0, align 8, !tbaa !18
  %18 = getelementptr inbounds nuw i8, ptr %17, i64 64
  %19 = load i64, ptr %18, align 8, !tbaa !24
  %20 = and i64 %19, 511
  store i64 %20, ptr %18, align 8, !tbaa !24
  %21 = load i16, ptr %4, align 2, !tbaa !17
  %22 = icmp ugt i16 %21, 9
  br i1 %22, label %.lr.ph.preheader, label %._crit_edge

.lr.ph.preheader:                                 ; preds = %16
  %23 = zext i16 %21 to i64
  %scevgep = getelementptr i8, ptr %17, i64 72
  %24 = shl nuw nsw i64 %23, 3
  %25 = add nsw i64 %24, -72
  call void @llvm.memset.p0.i64(ptr align 8 %scevgep, i8 0, i64 %25, i1 false), !tbaa !24
  br label %._crit_edge

._crit_edge:                                      ; preds = %.lr.ph.preheader, %16
  %26 = call i32 @mbedtls_mpi_add_abs(ptr noundef nonnull %0, ptr noundef nonnull %0, ptr noundef nonnull %2) #7
  br label %27

27:                                               ; preds = %7, %._crit_edge, %1
  %.013 = phi i32 [ 0, %1 ], [ %15, %7 ], [ %26, %._crit_edge ]
  call void @llvm.lifetime.end.p0(i64 80, ptr nonnull %3) #7
  call void @llvm.lifetime.end.p0(i64 16, ptr nonnull %2) #7
  ret i32 %.013
}